; Function Attrs: mustprogress uwtable
define void @_ZN17grpc_event_engine12experimental23PosixEngineListenerImpl23AsyncConnectionAcceptor8ShutdownEv(ptr noundef nonnull align 8 dereferenceable(209) %this) local_unnamed_addr #3 align 2 personality ptr @__gxx_personality_v0 {
entry:
  %agg.tmp = alloca %"class.absl::lts_20230802::Status", align 8
  %handle_ = getelementptr inbounds i8, ptr %this, i64 192
  %0 = load ptr, ptr %handle_, align 8
  call void @_ZN4absl12lts_2023080213InternalErrorESt17basic_string_viewIcSt11char_traitsIcEE(ptr nonnull sret(%"class.absl::lts_20230802::Status") align 8 %agg.tmp, i64 22, ptr nonnull @.str.13)
  %vtable = load ptr, ptr %0, align 8
  %vfn = getelementptr inbounds i8, ptr %vtable, i64 16
  %1 = load ptr, ptr %vfn, align 8
  invoke void %1(ptr noundef nonnull align 8 dereferenceable(8) %0, ptr noundef nonnull %agg.tmp)
          to label %invoke.cont unwind label %lpad

invoke.cont:                                      ; preds = %entry
  %2 = load i64, ptr %agg.tmp, align 8
  %and.i.i.i = and i64 %2, 1
  %cmp.i.i.i = icmp eq i64 %and.i.i.i, 0
  br i1 %cmp.i.i.i, label %_ZN4absl12lts_202308026StatusD2Ev.exit, label %if.then.i.i

if.then.i.i:                                      ; preds = %invoke.cont
  invoke void @_ZN4absl12lts_202308026Status15UnrefNonInlinedEm(i64 noundef %2)
          to label %_ZN4absl12lts_202308026StatusD2Ev.exit unwind label %terminate.lpad.i

terminate.lpad.i:                                 ; preds = %if.then.i.i
  %3 = landingpad { ptr, i32 }
          catch ptr null
  %4 = extractvalue { ptr, i32 } %3, 0
  call void @__clang_call_terminate(ptr %4) #22
  unreachable

_ZN4absl12lts_202308026StatusD2Ev.exit:           ; preds = %invoke.cont, %if.then.i.i
  %5 = atomicrmw sub ptr %this, i32 1 acq_rel, align 4
  %cmp.not.i = icmp eq i32 %5, 1
  br i1 %cmp.not.i, label %delete.notnull.i, label %_ZN17grpc_event_engine12experimental23PosixEngineListenerImpl23AsyncConnectionAcceptor5UnrefEv.exit

delete.notnull.i:                                 ; preds = %_ZN4absl12lts_202308026StatusD2Ev.exit
  call void @_ZN17grpc_event_engine12experimental23PosixEngineListenerImpl23AsyncConnectionAcceptorD2Ev(ptr noundef nonnull align 8 dereferenceable(209) %this) #21
  call void @_ZdlPv(ptr noundef nonnull %this) #25
  br label %_ZN17grpc_event_engine12experimental23PosixEngineListenerImpl23AsyncConnectionAcceptor5UnrefEv.exit

_ZN17grpc_event_engine12experimental23PosixEngineListenerImpl23AsyncConnectionAcceptor5UnrefEv.exit: ; preds = %_ZN4absl12lts_202308026StatusD2Ev.exit, %delete.notnull.i
  ret void

lpad:                                             ; preds = %entry
  %6 = landingpad { ptr, i32 }
          cleanup
  call void @_ZN4absl12lts_202308026StatusD2Ev(ptr noundef nonnull align 8 dereferenceable(8) %agg.tmp) #21
  resume { ptr, i32 } %6
}